target datalayout = "e-m:e-p270:32:32-p271:32:32-p272:64:64-i64:64-i128:128-f80:128-n8:16:32:64-S128"
target triple = "x86_64-pc-linux-gnu"

; Function Attrs: mustprogress nounwind uwtable
define dso_local noundef signext i8 @_ZN6icu_779ScriptRun7highBitEi(i32 noundef %0) #1 align 2 {
  %2 = alloca i8, align 1
  %3 = alloca i32, align 4
  %4 = alloca i8, align 1
  store i32 %0, ptr %3, align 4, !tbaa !4
  %5 = load i32, ptr %3, align 4, !tbaa !4
  %6 = icmp sle i32 %5, 0
  br i1 %6, label %7, label %8

7:                                                ; preds = %1
  store i8 -32, ptr %2, align 1
  br label %60

8:                                                ; preds = %1
  call void @llvm.lifetime.start.p0(i64 1, ptr %4) #5
  store i8 0, ptr %4, align 1, !tbaa !8
  %9 = load i32, ptr %3, align 4, !tbaa !4
  %10 = icmp sge i32 %9, 65536
  br i1 %10, label %11, label %18

11:                                               ; preds = %8
  %12 = load i32, ptr %3, align 4, !tbaa !4
  %13 = ashr i32 %12, 16
  store i32 %13, ptr %3, align 4, !tbaa !4
  %14 = load i8, ptr %4, align 1, !tbaa !8
  %15 = sext i8 %14 to i32
  %16 = add nsw i32 %15, 16
  %17 = trunc i32 %16 to i8
  store i8 %17, ptr %4, align 1, !tbaa !8
  br label %18

18:                                               ; preds = %11, %8
  %19 = load i32, ptr %3, align 4, !tbaa !4
  %20 = icmp sge i32 %19, 256
  br i1 %20, label %21, label %28

21:                                               ; preds = %18
  %22 = load i32, ptr %3, align 4, !tbaa !4
  %23 = ashr i32 %22, 8
  store i32 %23, ptr %3, align 4, !tbaa !4
  %24 = load i8, ptr %4, align 1, !tbaa !8
  %25 = sext i8 %24 to i32
  %26 = add nsw i32 %25, 8
  %27 = trunc i32 %26 to i8
  store i8 %27, ptr %4, align 1, !tbaa !8
  br label %28

28:                                               ; preds = %21, %18
  %29 = load i32, ptr %3, align 4, !tbaa !4
  %30 = icmp sge i32 %29, 16
  br i1 %30, label %31, label %38

31:                                               ; preds = %28
  %32 = load i32, ptr %3, align 4, !tbaa !4
  %33 = ashr i32 %32, 4
  store i32 %33, ptr %3, align 4, !tbaa !4
  %34 = load i8, ptr %4, align 1, !tbaa !8
  %35 = sext i8 %34 to i32
  %36 = add nsw i32 %35, 4
  %37 = trunc i32 %36 to i8
  store i8 %37, ptr %4, align 1, !tbaa !8
  br label %38

38:                                               ; preds = %31, %28
  %39 = load i32, ptr %3, align 4, !tbaa !4
  %40 = icmp sge i32 %39, 4
  br i1 %40, label %41, label %48

41:                                               ; preds = %38
  %42 = load i32, ptr %3, align 4, !tbaa !4
  %43 = ashr i32 %42, 2
  store i32 %43, ptr %3, align 4, !tbaa !4
  %44 = load i8, ptr %4, align 1, !tbaa !8
  %45 = sext i8 %44 to i32
  %46 = add nsw i32 %45, 2
  %47 = trunc i32 %46 to i8
  store i8 %47, ptr %4, align 1, !tbaa !8
  br label %48

48:                                               ; preds = %41, %38
  %49 = load i32, ptr %3, align 4, !tbaa !4
  %50 = icmp sge i32 %49, 2
  br i1 %50, label %51, label %58

51:                                               ; preds = %48
  %52 = load i32, ptr %3, align 4, !tbaa !4
  %53 = ashr i32 %52, 1
  store i32 %53, ptr %3, align 4, !tbaa !4
  %54 = load i8, ptr %4, align 1, !tbaa !8
  %55 = sext i8 %54 to i32
  %56 = add nsw i32 %55, 1
  %57 = trunc i32 %56 to i8
  store i8 %57, ptr %4, align 1, !tbaa !8
  br label %58

58:                                               ; preds = %51, %48
  %59 = load i8, ptr %4, align 1, !tbaa !8
  store i8 %59, ptr %2, align 1
  call void @llvm.lifetime.end.p0(i64 1, ptr %4) #5
  br label %60

60:                                               ; preds = %58, %7
  %61 = load i8, ptr %2, align 1
  ret i8 %61
}